target datalayout = "e-m:e-p270:32:32-p271:32:32-p272:64:64-i64:64-i128:128-f80:128-n8:16:32:64-S128"
target triple = "x86_64-pc-linux-gnu"

%struct.UriParserStateStructW = type { ptr, i32, ptr, ptr }

; Function Attrs: inlinehint nounwind uwtable
define internal void @uriStopSyntaxW(ptr noundef %0, ptr noundef %1, ptr noundef %2) #4 {
  %4 = alloca ptr, align 8
  %5 = alloca ptr, align 8
  %6 = alloca ptr, align 8
  store ptr %0, ptr %4, align 8, !tbaa !59
  store ptr %1, ptr %5, align 8, !tbaa !61
  store ptr %2, ptr %6, align 8, !tbaa !10
  %7 = load ptr, ptr %4, align 8, !tbaa !59
  %8 = getelementptr inbounds nuw %struct.UriParserStateStructW, ptr %7, i32 0, i32 0
  %9 = load ptr, ptr %8, align 8, !tbaa !63
  %10 = load ptr, ptr %6, align 8, !tbaa !10
  %11 = call i32 @uriFreeUriMembersMmW(ptr noundef %9, ptr noundef %10)
  %12 = load ptr, ptr %5, align 8, !tbaa !61
  %13 = load ptr, ptr %4, align 8, !tbaa !59
  %14 = getelementptr inbounds nuw %struct.UriParserStateStructW, ptr %13, i32 0, i32 2
  store ptr %12, ptr %14, align 8, !tbaa !67
  %15 = load ptr, ptr %4, align 8, !tbaa !59
  %16 = getelementptr inbounds nuw %struct.UriParserStateStructW, ptr %15, i32 0, i32 1
  store i32 1, ptr %16, align 8, !tbaa !68
  ret void
}

; Function Attrs: nounwind uwtable
define internal ptr @uriParsePctEncodedW(ptr noundef %0, ptr noundef %1, ptr noundef %2, ptr noundef %3) #0 {
  %5 = alloca ptr, align 8
  %6 = alloca ptr, align 8
  %7 = alloca ptr, align 8
  %8 = alloca ptr, align 8
  %9 = alloca ptr, align 8
  store ptr %0, ptr %6, align 8, !tbaa !59
  store ptr %1, ptr %7, align 8, !tbaa !61
  store ptr %2, ptr %8, align 8, !tbaa !61
  store ptr %3, ptr %9, align 8, !tbaa !10
  %10 = load ptr, ptr %7, align 8, !tbaa !61
  %11 = load ptr, ptr %8, align 8, !tbaa !61
  %12 = icmp uge ptr %10, %11
  br i1 %12, label %13, label %17

13:                                               ; preds = %4
  %14 = load ptr, ptr %6, align 8, !tbaa !59
  %15 = load ptr, ptr %8, align 8, !tbaa !61
  %16 = load ptr, ptr %9, align 8, !tbaa !10
  call void @uriStopSyntaxW(ptr noundef %14, ptr noundef %15, ptr noundef %16)
  store ptr null, ptr %5, align 8
  br label %56

17:                                               ; preds = %4
  %18 = load ptr, ptr %7, align 8, !tbaa !61
  %19 = getelementptr inbounds i32, ptr %18, i64 1
  %20 = load ptr, ptr %8, align 8, !tbaa !61
  %21 = icmp uge ptr %19, %20
  br i1 %21, label %22, label %26

22:                                               ; preds = %17
  %23 = load ptr, ptr %6, align 8, !tbaa !59
  %24 = load ptr, ptr %8, align 8, !tbaa !61
  %25 = load ptr, ptr %9, align 8, !tbaa !10
  call void @uriStopSyntaxW(ptr noundef %23, ptr noundef %24, ptr noundef %25)
  store ptr null, ptr %5, align 8
  br label %56

26:                                               ; preds = %17
  %27 = load ptr, ptr %7, align 8, !tbaa !61
  %28 = getelementptr inbounds i32, ptr %27, i64 1
  %29 = load i32, ptr %28, align 4, !tbaa !21
  switch i32 %29, label %51 [
    i32 48, label %30
    i32 49, label %30
    i32 50, label %30
    i32 51, label %30
    i32 52, label %30
    i32 53, label %30
    i32 54, label %30
    i32 55, label %30
    i32 56, label %30
    i32 57, label %30
    i32 65, label %30
    i32 66, label %30
    i32 67, label %30
    i32 68, label %30
    i32 69, label %30
    i32 70, label %30
    i32 97, label %30
    i32 98, label %30
    i32 99, label %30
    i32 100, label %30
    i32 101, label %30
    i32 102, label %30
  ]

30:                                               ; preds = %26, %26, %26, %26, %26, %26, %26, %26, %26, %26, %26, %26, %26, %26, %26, %26, %26, %26, %26, %26, %26, %26
  %31 = load ptr, ptr %7, align 8, !tbaa !61
  %32 = getelementptr inbounds i32, ptr %31, i64 2
  %33 = load ptr, ptr %8, align 8, !tbaa !61
  %34 = icmp uge ptr %32, %33
  br i1 %34, label %35, label %39

35:                                               ; preds = %30
  %36 = load ptr, ptr %6, align 8, !tbaa !59
  %37 = load ptr, ptr %8, align 8, !tbaa !61
  %38 = load ptr, ptr %9, align 8, !tbaa !10
  call void @uriStopSyntaxW(ptr noundef %36, ptr noundef %37, ptr noundef %38)
  store ptr null, ptr %5, align 8
  br label %56

39:                                               ; preds = %30
  %40 = load ptr, ptr %7, align 8, !tbaa !61
  %41 = getelementptr inbounds i32, ptr %40, i64 2
  %42 = load i32, ptr %41, align 4, !tbaa !21
  switch i32 %42, label %46 [
    i32 48, label %43
    i32 49, label %43
    i32 50, label %43
    i32 51, label %43
    i32 52, label %43
    i32 53, label %43
    i32 54, label %43
    i32 55, label %43
    i32 56, label %43
    i32 57, label %43
    i32 65, label %43
    i32 66, label %43
    i32 67, label %43
    i32 68, label %43
    i32 69, label %43
    i32 70, label %43
    i32 97, label %43
    i32 98, label %43
    i32 99, label %43
    i32 100, label %43
    i32 101, label %43
    i32 102, label %43
  ]

43:                                               ; preds = %39, %39, %39, %39, %39, %39, %39, %39, %39, %39, %39, %39, %39, %39, %39, %39, %39, %39, %39, %39, %39, %39
  %44 = load ptr, ptr %7, align 8, !tbaa !61
  %45 = getelementptr inbounds i32, ptr %44, i64 3
  store ptr %45, ptr %5, align 8
  br label %56

46:                                               ; preds = %39
  %47 = load ptr, ptr %6, align 8, !tbaa !59
  %48 = load ptr, ptr %7, align 8, !tbaa !61
  %49 = getelementptr inbounds i32, ptr %48, i64 2
  %50 = load ptr, ptr %9, align 8, !tbaa !10
  call void @uriStopSyntaxW(ptr noundef %47, ptr noundef %49, ptr noundef %50)
  store ptr null, ptr %5, align 8
  br label %56

51:                                               ; preds = %26
  %52 = load ptr, ptr %6, align 8, !tbaa !59
  %53 = load ptr, ptr %7, align 8, !tbaa !61
  %54 = getelementptr inbounds i32, ptr %53, i64 1
  %55 = load ptr, ptr %9, align 8, !tbaa !10
  call void @uriStopSyntaxW(ptr noundef %52, ptr noundef %54, ptr noundef %55)
  store ptr null, ptr %5, align 8
  br label %56

56:                                               ; preds = %51, %46, %43, %35, %22, %13
  %57 = load ptr, ptr %5, align 8
  ret ptr %57
}