; Function Attrs: nounwind uwtable
define internal fastcc ptr @uriParsePctEncodedW(ptr noundef nonnull captures(none) %0, ptr noundef nonnull %1, ptr noundef nonnull %2, ptr noundef %3) unnamed_addr #0 {
  %.not = icmp ult ptr %1, %2
  br i1 %.not, label %10, label %5

5:                                                ; preds = %4
  %6 = load ptr, ptr %0, align 8, !tbaa !51
  %7 = tail call i32 @uriFreeUriMembersMmW(ptr noundef %6, ptr noundef %3)
  %8 = getelementptr inbounds nuw i8, ptr %0, i64 16
  store ptr %2, ptr %8, align 8, !tbaa !68
  %9 = getelementptr inbounds nuw i8, ptr %0, i64 8
  store i32 1, ptr %9, align 8, !tbaa !69
  br label %40

10:                                               ; preds = %4
  %11 = getelementptr inbounds nuw i8, ptr %1, i64 4
  %.not29 = icmp ult ptr %11, %2
  br i1 %.not29, label %17, label %12

12:                                               ; preds = %10
  %13 = load ptr, ptr %0, align 8, !tbaa !51
  %14 = tail call i32 @uriFreeUriMembersMmW(ptr noundef %13, ptr noundef %3)
  %15 = getelementptr inbounds nuw i8, ptr %0, i64 16
  store ptr %2, ptr %15, align 8, !tbaa !68
  %16 = getelementptr inbounds nuw i8, ptr %0, i64 8
  store i32 1, ptr %16, align 8, !tbaa !69
  br label %40

17:                                               ; preds = %10
  %18 = load i32, ptr %11, align 4, !tbaa !55
  switch i32 %18, label %35 [
    i32 48, label %19
    i32 49, label %19
    i32 50, label %19
    i32 51, label %19
    i32 52, label %19
    i32 53, label %19
    i32 54, label %19
    i32 55, label %19
    i32 56, label %19
    i32 57, label %19
    i32 65, label %19
    i32 66, label %19
    i32 67, label %19
    i32 68, label %19
    i32 69, label %19
    i32 70, label %19
    i32 97, label %19
    i32 98, label %19
    i32 99, label %19
    i32 100, label %19
    i32 101, label %19
    i32 102, label %19
  ]

19:                                               ; preds = %17, %17, %17, %17, %17, %17, %17, %17, %17, %17, %17, %17, %17, %17, %17, %17, %17, %17, %17, %17, %17, %17
  %20 = getelementptr inbounds nuw i8, ptr %1, i64 8
  %.not30 = icmp ult ptr %20, %2
  br i1 %.not30, label %26, label %21

21:                                               ; preds = %19
  %22 = load ptr, ptr %0, align 8, !tbaa !51
  %23 = tail call i32 @uriFreeUriMembersMmW(ptr noundef %22, ptr noundef %3)
  %24 = getelementptr inbounds nuw i8, ptr %0, i64 16
  store ptr %2, ptr %24, align 8, !tbaa !68
  %25 = getelementptr inbounds nuw i8, ptr %0, i64 8
  store i32 1, ptr %25, align 8, !tbaa !69
  br label %40

26:                                               ; preds = %19
  %27 = load i32, ptr %20, align 4, !tbaa !55
  switch i32 %27, label %30 [
    i32 48, label %28
    i32 49, label %28
    i32 50, label %28
    i32 51, label %28
    i32 52, label %28
    i32 53, label %28
    i32 54, label %28
    i32 55, label %28
    i32 56, label %28
    i32 57, label %28
    i32 65, label %28
    i32 66, label %28
    i32 67, label %28
    i32 68, label %28
    i32 69, label %28
    i32 70, label %28
    i32 97, label %28
    i32 98, label %28
    i32 99, label %28
    i32 100, label %28
    i32 101, label %28
    i32 102, label %28
  ]

28:                                               ; preds = %26, %26, %26, %26, %26, %26, %26, %26, %26, %26, %26, %26, %26, %26, %26, %26, %26, %26, %26, %26, %26, %26
  %29 = getelementptr inbounds nuw i8, ptr %1, i64 12
  br label %40

30:                                               ; preds = %26
  %31 = load ptr, ptr %0, align 8, !tbaa !51
  %32 = tail call i32 @uriFreeUriMembersMmW(ptr noundef %31, ptr noundef %3)
  %33 = getelementptr inbounds nuw i8, ptr %0, i64 16
  store ptr %20, ptr %33, align 8, !tbaa !68
  %34 = getelementptr inbounds nuw i8, ptr %0, i64 8
  store i32 1, ptr %34, align 8, !tbaa !69
  br label %40

35:                                               ; preds = %17
  %36 = load ptr, ptr %0, align 8, !tbaa !51
  %37 = tail call i32 @uriFreeUriMembersMmW(ptr noundef %36, ptr noundef %3)
  %38 = getelementptr inbounds nuw i8, ptr %0, i64 16
  store ptr %11, ptr %38, align 8, !tbaa !68
  %39 = getelementptr inbounds nuw i8, ptr %0, i64 8
  store i32 1, ptr %39, align 8, !tbaa !69
  br label %40

40:                                               ; preds = %35, %30, %28, %21, %12, %5
  %.0 = phi ptr [ null, %5 ], [ null, %12 ], [ null, %35 ], [ null, %21 ], [ null, %30 ], [ %29, %28 ]
  ret ptr %.0
}